target datalayout = "e-m:e-p270:32:32-p271:32:32-p272:64:64-i64:64-i128:128-f80:128-n8:16:32:64-S128"
target triple = "x86_64-pc-linux-gnu"

%struct.TCGOp = type { i32, i32, %union.anon, [2 x i32], [0 x i64] }
%union.anon = type { %struct.QTailQLink }
%struct.QTailQLink = type { ptr, ptr }

@tcg_ctx = external thread_local global ptr, align 8

; Function Attrs: inlinehint nounwind sspstrong uwtable
define internal i64 @temp_arg(ptr noundef %0) #4 {
  %2 = alloca ptr, align 8
  store ptr %0, ptr %2, align 8
  %3 = load ptr, ptr %2, align 8
  %4 = ptrtoint ptr %3 to i64
  ret i64 %4
}

; Function Attrs: inlinehint nounwind sspstrong uwtable
define internal ptr @tcgv_i32_temp(ptr noundef %0) #4 {
  %2 = alloca ptr, align 8
  store ptr %0, ptr %2, align 8
  %3 = call align 8 ptr @llvm.threadlocal.address.p0(ptr align 8 @tcg_ctx)
  %4 = load ptr, ptr %3, align 8
  %5 = load ptr, ptr %2, align 8
  %6 = ptrtoint ptr %5 to i64
  %7 = getelementptr inbounds nuw i8, ptr %4, i64 %6
  ret ptr %7
}

; Function Attrs: nounwind sspstrong uwtable
define internal void @tcg_gen_op3_i32(i32 noundef %0, ptr noundef %1, ptr noundef %2, ptr noundef %3) #3 {
  %5 = alloca i32, align 4
  %6 = alloca ptr, align 8
  %7 = alloca ptr, align 8
  %8 = alloca ptr, align 8
  store i32 %0, ptr %5, align 4
  store ptr %1, ptr %6, align 8
  store ptr %2, ptr %7, align 8
  store ptr %3, ptr %8, align 8
  %9 = load i32, ptr %5, align 4
  %10 = load ptr, ptr %6, align 8
  %11 = call i64 @tcgv_i32_arg(ptr noundef %10)
  %12 = load ptr, ptr %7, align 8
  %13 = call i64 @tcgv_i32_arg(ptr noundef %12)
  %14 = load ptr, ptr %8, align 8
  %15 = call i64 @tcgv_i32_arg(ptr noundef %14)
  %16 = call ptr @tcg_gen_op3(i32 noundef %9, i32 noundef 0, i64 noundef %11, i64 noundef %13, i64 noundef %15)
  ret void
}

; Function Attrs: nounwind sspstrong uwtable
define internal void @tcg_gen_op2_i32(i32 noundef %0, ptr noundef %1, ptr noundef %2) #3 {
  %4 = alloca i32, align 4
  %5 = alloca ptr, align 8
  %6 = alloca ptr, align 8
  store i32 %0, ptr %4, align 4
  store ptr %1, ptr %5, align 8
  store ptr %2, ptr %6, align 8
  %7 = load i32, ptr %4, align 4
  %8 = load ptr, ptr %5, align 8
  %9 = call i64 @tcgv_i32_arg(ptr noundef %8)
  %10 = load ptr, ptr %6, align 8
  %11 = call i64 @tcgv_i32_arg(ptr noundef %10)
  %12 = call ptr @tcg_gen_op2(i32 noundef %7, i32 noundef 0, i64 noundef %9, i64 noundef %11)
  ret void
}

; Function Attrs: noinline nounwind sspstrong uwtable
define dso_local ptr @tcg_gen_op5(i32 noundef %0, i32 noundef %1, i64 noundef %2, i64 noundef %3, i64 noundef %4, i64 noundef %5, i64 noundef %6) #0 {
  %8 = alloca i32, align 4
  %9 = alloca i32, align 4
  %10 = alloca i64, align 8
  %11 = alloca i64, align 8
  %12 = alloca i64, align 8
  %13 = alloca i64, align 8
  %14 = alloca i64, align 8
  %15 = alloca ptr, align 8
  store i32 %0, ptr %8, align 4
  store i32 %1, ptr %9, align 4
  store i64 %2, ptr %10, align 8
  store i64 %3, ptr %11, align 8
  store i64 %4, ptr %12, align 8
  store i64 %5, ptr %13, align 8
  store i64 %6, ptr %14, align 8
  call void @llvm.lifetime.start.p0(i64 8, ptr %15) #7
  %16 = load i32, ptr %8, align 4
  %17 = call ptr @tcg_emit_op(i32 noundef %16, i32 noundef 5)
  store ptr %17, ptr %15, align 8
  %18 = load i32, ptr %9, align 4
  %19 = load ptr, ptr %15, align 8
  %20 = load i32, ptr %19, align 8
  %21 = and i32 %18, 255
  %22 = shl i32 %21, 16
  %23 = and i32 %20, -16711681
  %24 = or i32 %23, %22
  store i32 %24, ptr %19, align 8
  %25 = load i64, ptr %10, align 8
  %26 = load ptr, ptr %15, align 8
  %27 = getelementptr inbounds nuw %struct.TCGOp, ptr %26, i32 0, i32 4
  %28 = getelementptr inbounds [0 x i64], ptr %27, i64 0, i64 0
  store i64 %25, ptr %28, align 8
  %29 = load i64, ptr %11, align 8
  %30 = load ptr, ptr %15, align 8
  %31 = getelementptr inbounds nuw %struct.TCGOp, ptr %30, i32 0, i32 4
  %32 = getelementptr inbounds [0 x i64], ptr %31, i64 0, i64 1
  store i64 %29, ptr %32, align 8
  %33 = load i64, ptr %12, align 8
  %34 = load ptr, ptr %15, align 8
  %35 = getelementptr inbounds nuw %struct.TCGOp, ptr %34, i32 0, i32 4
  %36 = getelementptr inbounds [0 x i64], ptr %35, i64 0, i64 2
  store i64 %33, ptr %36, align 8
  %37 = load i64, ptr %13, align 8
  %38 = load ptr, ptr %15, align 8
  %39 = getelementptr inbounds nuw %struct.TCGOp, ptr %38, i32 0, i32 4
  %40 = getelementptr inbounds [0 x i64], ptr %39, i64 0, i64 3
  store i64 %37, ptr %40, align 8
  %41 = load i64, ptr %14, align 8
  %42 = load ptr, ptr %15, align 8
  %43 = getelementptr inbounds nuw %struct.TCGOp, ptr %42, i32 0, i32 4
  %44 = getelementptr inbounds [0 x i64], ptr %43, i64 0, i64 4
  store i64 %41, ptr %44, align 8
  %45 = load ptr, ptr %15, align 8
  call void @llvm.lifetime.end.p0(i64 8, ptr %15) #7
  ret ptr %45
}

; Function Attrs: inlinehint nounwind sspstrong uwtable
define internal i64 @tcgv_i32_arg(ptr noundef %0) #4 {
  %2 = alloca ptr, align 8
  store ptr %0, ptr %2, align 8
  %3 = load ptr, ptr %2, align 8
  %4 = call ptr @tcgv_i32_temp(ptr noundef %3)
  %5 = call i64 @temp_arg(ptr noundef %4)
  ret i64 %5
}

; Function Attrs: nounwind sspstrong uwtable
define dso_local void @tcg_gen_shl_i32(ptr noundef %0, ptr noundef %1, ptr noundef %2) #3 {
  %4 = alloca ptr, align 8
  %5 = alloca ptr, align 8
  %6 = alloca ptr, align 8
  store ptr %0, ptr %4, align 8
  store ptr %1, ptr %5, align 8
  store ptr %2, ptr %6, align 8
  %7 = load ptr, ptr %4, align 8
  %8 = load ptr, ptr %5, align 8
  %9 = load ptr, ptr %6, align 8
  call void @tcg_gen_op3_i32(i32 noundef 29, ptr noundef %7, ptr noundef %8, ptr noundef %9)
  ret void
}

; Function Attrs: nounwind sspstrong uwtable
define dso_local void @tcg_gen_mov_i32(ptr noundef %0, ptr noundef %1) #3 {
  %3 = alloca ptr, align 8
  %4 = alloca ptr, align 8
  store ptr %0, ptr %3, align 8
  store ptr %1, ptr %4, align 8
  %5 = load ptr, ptr %3, align 8
  %6 = load ptr, ptr %4, align 8
  %7 = icmp ne ptr %5, %6
  br i1 %7, label %8, label %11

8:                                                ; preds = %2
  %9 = load ptr, ptr %3, align 8
  %10 = load ptr, ptr %4, align 8
  call void @tcg_gen_op2_i32(i32 noundef 5, ptr noundef %9, ptr noundef %10)
  br label %11

11:                                               ; preds = %8, %2
  ret void
}

; Function Attrs: nounwind sspstrong uwtable
define dso_local void @tcg_gen_ext8u_i32(ptr noundef %0, ptr noundef %1) #3 {
  %3 = alloca ptr, align 8
  %4 = alloca ptr, align 8
  store ptr %0, ptr %3, align 8
  store ptr %1, ptr %4, align 8
  %5 = load ptr, ptr %3, align 8
  %6 = load ptr, ptr %4, align 8
  call void @tcg_gen_op2_i32(i32 noundef 49, ptr noundef %5, ptr noundef %6)
  ret void
}

; Function Attrs: nounwind sspstrong uwtable
define dso_local void @tcg_gen_ext16u_i32(ptr noundef %0, ptr noundef %1) #3 {
  %3 = alloca ptr, align 8
  %4 = alloca ptr, align 8
  store ptr %0, ptr %3, align 8
  store ptr %1, ptr %4, align 8
  %5 = load ptr, ptr %3, align 8
  %6 = load ptr, ptr %4, align 8
  call void @tcg_gen_op2_i32(i32 noundef 50, ptr noundef %5, ptr noundef %6)
  ret void
}

; Function Attrs: nounwind sspstrong uwtable
define internal void @tcg_gen_op5ii_i32(i32 noundef %0, ptr noundef %1, ptr noundef %2, ptr noundef %3, i64 noundef %4, i64 noundef %5) #3 {
  %7 = alloca i32, align 4
  %8 = alloca ptr, align 8
  %9 = alloca ptr, align 8
  %10 = alloca ptr, align 8
  %11 = alloca i64, align 8
  %12 = alloca i64, align 8
  store i32 %0, ptr %7, align 4
  store ptr %1, ptr %8, align 8
  store ptr %2, ptr %9, align 8
  store ptr %3, ptr %10, align 8
  store i64 %4, ptr %11, align 8
  store i64 %5, ptr %12, align 8
  %13 = load i32, ptr %7, align 4
  %14 = load ptr, ptr %8, align 8
  %15 = call i64 @tcgv_i32_arg(ptr noundef %14)
  %16 = load ptr, ptr %9, align 8
  %17 = call i64 @tcgv_i32_arg(ptr noundef %16)
  %18 = load ptr, ptr %10, align 8
  %19 = call i64 @tcgv_i32_arg(ptr noundef %18)
  %20 = load i64, ptr %11, align 8
  %21 = load i64, ptr %12, align 8
  %22 = call ptr @tcg_gen_op5(i32 noundef %13, i32 noundef 0, i64 noundef %15, i64 noundef %17, i64 noundef %19, i64 noundef %20, i64 noundef %21)
  ret void
}

; Function Attrs: nounwind sspstrong uwtable
define dso_local void @tcg_gen_shli_i32(ptr noundef %0, ptr noundef %1, i32 noundef %2) #3 {
  %4 = alloca ptr, align 8
  %5 = alloca ptr, align 8
  %6 = alloca i32, align 4
  store ptr %0, ptr %4, align 8
  store ptr %1, ptr %5, align 8
  store i32 %2, ptr %6, align 4
  br label %7

7:                                                ; preds = %3
  %8 = load i32, ptr %6, align 4
  %9 = icmp sge i32 %8, 0
  br i1 %9, label %10, label %13

10:                                               ; preds = %7
  %11 = load i32, ptr %6, align 4
  %12 = icmp slt i32 %11, 32
  br i1 %12, label %14, label %13

13:                                               ; preds = %10, %7
  unreachable

14:                                               ; preds = %10
  br label %15

15:                                               ; preds = %14
  %16 = load i32, ptr %6, align 4
  %17 = icmp eq i32 %16, 0
  br i1 %17, label %18, label %21

18:                                               ; preds = %15
  %19 = load ptr, ptr %4, align 8
  %20 = load ptr, ptr %5, align 8
  call void @tcg_gen_mov_i32(ptr noundef %19, ptr noundef %20)
  br label %26

21:                                               ; preds = %15
  %22 = load ptr, ptr %4, align 8
  %23 = load ptr, ptr %5, align 8
  %24 = load i32, ptr %6, align 4
  %25 = call ptr @tcg_constant_i32(i32 noundef %24)
  call void @tcg_gen_shl_i32(ptr noundef %22, ptr noundef %23, ptr noundef %25)
  br label %26

26:                                               ; preds = %21, %18
  ret void
}

; Function Attrs: nounwind sspstrong uwtable
define dso_local void @tcg_gen_deposit_z_i32(ptr noundef %0, ptr noundef %1, i32 noundef %2, i32 noundef %3) #3 {
  %5 = alloca ptr, align 8
  %6 = alloca ptr, align 8
  %7 = alloca i32, align 4
  %8 = alloca i32, align 4
  %9 = alloca ptr, align 8
  store ptr %0, ptr %5, align 8
  store ptr %1, ptr %6, align 8
  store i32 %2, ptr %7, align 4
  store i32 %3, ptr %8, align 4
  br label %10

10:                                               ; preds = %4
  %11 = load i32, ptr %7, align 4
  %12 = icmp ult i32 %11, 32
  br i1 %12, label %14, label %13

13:                                               ; preds = %10
  unreachable

14:                                               ; preds = %10
  br label %15

15:                                               ; preds = %14
  br label %16

16:                                               ; preds = %15
  %17 = load i32, ptr %8, align 4
  %18 = icmp ugt i32 %17, 0
  br i1 %18, label %20, label %19

19:                                               ; preds = %16
  unreachable

20:                                               ; preds = %16
  br label %21

21:                                               ; preds = %20
  br label %22

22:                                               ; preds = %21
  %23 = load i32, ptr %8, align 4
  %24 = icmp ule i32 %23, 32
  br i1 %24, label %26, label %25

25:                                               ; preds = %22
  unreachable

26:                                               ; preds = %22
  br label %27

27:                                               ; preds = %26
  br label %28

28:                                               ; preds = %27
  %29 = load i32, ptr %7, align 4
  %30 = load i32, ptr %8, align 4
  %31 = add i32 %29, %30
  %32 = icmp ule i32 %31, 32
  br i1 %32, label %34, label %33

33:                                               ; preds = %28
  unreachable

34:                                               ; preds = %28
  br label %35

35:                                               ; preds = %34
  %36 = load i32, ptr %7, align 4
  %37 = load i32, ptr %8, align 4
  %38 = add i32 %36, %37
  %39 = icmp eq i32 %38, 32
  br i1 %39, label %40, label %44

40:                                               ; preds = %35
  %41 = load ptr, ptr %5, align 8
  %42 = load ptr, ptr %6, align 8
  %43 = load i32, ptr %7, align 4
  call void @tcg_gen_shli_i32(ptr noundef %41, ptr noundef %42, i32 noundef %43)
  br label %112

44:                                               ; preds = %35
  %45 = load i32, ptr %7, align 4
  %46 = icmp eq i32 %45, 0
  br i1 %46, label %47, label %53

47:                                               ; preds = %44
  %48 = load ptr, ptr %5, align 8
  %49 = load ptr, ptr %6, align 8
  %50 = load i32, ptr %8, align 4
  %51 = shl i32 1, %50
  %52 = sub i32 %51, 1
  call void @tcg_gen_andi_i32(ptr noundef %48, ptr noundef %49, i32 noundef %52)
  br label %111

53:                                               ; preds = %44
  %54 = load i32, ptr %7, align 4
  %55 = icmp eq i32 %54, 0
  br i1 %55, label %56, label %71

56:                                               ; preds = %53
  %57 = load i32, ptr %8, align 4
  %58 = icmp eq i32 %57, 8
  br i1 %58, label %62, label %59

59:                                               ; preds = %56
  %60 = load i32, ptr %8, align 4
  %61 = icmp eq i32 %60, 16
  br i1 %61, label %62, label %71

62:                                               ; preds = %59, %56
  call void @llvm.lifetime.start.p0(i64 8, ptr %9) #7
  %63 = call ptr @tcg_constant_i32(i32 noundef 0)
  store ptr %63, ptr %9, align 8
  %64 = load ptr, ptr %5, align 8
  %65 = load ptr, ptr %9, align 8
  %66 = load ptr, ptr %6, align 8
  %67 = load i32, ptr %7, align 4
  %68 = zext i32 %67 to i64
  %69 = load i32, ptr %8, align 4
  %70 = zext i32 %69 to i64
  call void @tcg_gen_op5ii_i32(i32 noundef 34, ptr noundef %64, ptr noundef %65, ptr noundef %66, i64 noundef %68, i64 noundef %70)
  call void @llvm.lifetime.end.p0(i64 8, ptr %9) #7
  br label %110

71:                                               ; preds = %59, %53
  %72 = load i32, ptr %8, align 4
  switch i32 %72, label %85 [
    i32 16, label %73
    i32 8, label %79
  ]

73:                                               ; preds = %71
  %74 = load ptr, ptr %5, align 8
  %75 = load ptr, ptr %6, align 8
  call void @tcg_gen_ext16u_i32(ptr noundef %74, ptr noundef %75)
  %76 = load ptr, ptr %5, align 8
  %77 = load ptr, ptr %5, align 8
  %78 = load i32, ptr %7, align 4
  call void @tcg_gen_shli_i32(ptr noundef %76, ptr noundef %77, i32 noundef %78)
  br label %112

79:                                               ; preds = %71
  %80 = load ptr, ptr %5, align 8
  %81 = load ptr, ptr %6, align 8
  call void @tcg_gen_ext8u_i32(ptr noundef %80, ptr noundef %81)
  %82 = load ptr, ptr %5, align 8
  %83 = load ptr, ptr %5, align 8
  %84 = load i32, ptr %7, align 4
  call void @tcg_gen_shli_i32(ptr noundef %82, ptr noundef %83, i32 noundef %84)
  br label %112

85:                                               ; preds = %71
  %86 = load i32, ptr %7, align 4
  %87 = load i32, ptr %8, align 4
  %88 = add i32 %86, %87
  switch i32 %88, label %101 [
    i32 16, label %89
    i32 8, label %95
  ]

89:                                               ; preds = %85
  %90 = load ptr, ptr %5, align 8
  %91 = load ptr, ptr %6, align 8
  %92 = load i32, ptr %7, align 4
  call void @tcg_gen_shli_i32(ptr noundef %90, ptr noundef %91, i32 noundef %92)
  %93 = load ptr, ptr %5, align 8
  %94 = load ptr, ptr %5, align 8
  call void @tcg_gen_ext16u_i32(ptr noundef %93, ptr noundef %94)
  br label %112

95:                                               ; preds = %85
  %96 = load ptr, ptr %5, align 8
  %97 = load ptr, ptr %6, align 8
  %98 = load i32, ptr %7, align 4
  call void @tcg_gen_shli_i32(ptr noundef %96, ptr noundef %97, i32 noundef %98)
  %99 = load ptr, ptr %5, align 8
  %100 = load ptr, ptr %5, align 8
  call void @tcg_gen_ext8u_i32(ptr noundef %99, ptr noundef %100)
  br label %112

101:                                              ; preds = %85
  %102 = load ptr, ptr %5, align 8
  %103 = load ptr, ptr %6, align 8
  %104 = load i32, ptr %8, align 4
  %105 = shl i32 1, %104
  %106 = sub i32 %105, 1
  call void @tcg_gen_andi_i32(ptr noundef %102, ptr noundef %103, i32 noundef %106)
  %107 = load ptr, ptr %5, align 8
  %108 = load ptr, ptr %5, align 8
  %109 = load i32, ptr %7, align 4
  call void @tcg_gen_shli_i32(ptr noundef %107, ptr noundef %108, i32 noundef %109)
  br label %110

110:                                              ; preds = %101, %62
  br label %111

111:                                              ; preds = %110, %47
  br label %112

112:                                              ; preds = %73, %79, %89, %95, %111, %40
  ret void
}