; Function Attrs: nounwind sspstrong uwtable
define dso_local void @tcg_gen_deposit_z_i32(ptr noundef %0, ptr noundef %1, i32 noundef %2, i32 noundef %3) local_unnamed_addr #2 {
  %5 = icmp samesign ult i32 %2, 32
  tail call void @llvm.assume(i1 %5)
  %6 = icmp ne i32 %3, 0
  tail call void @llvm.assume(i1 %6)
  %7 = add nuw nsw i32 %3, %2
  %8 = icmp samesign ult i32 %7, 33
  tail call void @llvm.assume(i1 %8)
  %9 = icmp eq i32 %7, 32
  %10 = icmp eq i32 %2, 0
  br i1 %9, label %11, label %37

11:                                               ; preds = %4
  br i1 %10, label %12, label %23

12:                                               ; preds = %11
  %.not.i.i = icmp eq ptr %0, %1
  br i1 %.not.i.i, label %tcg_gen_shli_i32.exit, label %13

13:                                               ; preds = %12
  %14 = tail call align 8 ptr @llvm.threadlocal.address.p0(ptr align 8 @tcg_ctx)
  %15 = load ptr, ptr %14, align 8
  %16 = ptrtoint ptr %0 to i64
  %17 = getelementptr inbounds nuw i8, ptr %15, i64 %16
  %18 = ptrtoint ptr %17 to i64
  %19 = ptrtoint ptr %1 to i64
  %20 = getelementptr inbounds nuw i8, ptr %15, i64 %19
  %21 = ptrtoint ptr %20 to i64
  %22 = tail call ptr @tcg_gen_op2(i32 noundef 5, i32 noundef 0, i64 noundef %18, i64 noundef %21)
  br label %tcg_gen_shli_i32.exit

23:                                               ; preds = %11
  %24 = tail call ptr @tcg_constant_i32(i32 noundef %2) #6
  %25 = tail call align 8 ptr @llvm.threadlocal.address.p0(ptr align 8 @tcg_ctx)
  %26 = load ptr, ptr %25, align 8
  %27 = ptrtoint ptr %0 to i64
  %28 = getelementptr inbounds nuw i8, ptr %26, i64 %27
  %29 = ptrtoint ptr %28 to i64
  %30 = ptrtoint ptr %1 to i64
  %31 = getelementptr inbounds nuw i8, ptr %26, i64 %30
  %32 = ptrtoint ptr %31 to i64
  %33 = ptrtoint ptr %24 to i64
  %34 = getelementptr inbounds nuw i8, ptr %26, i64 %33
  %35 = ptrtoint ptr %34 to i64
  %36 = tail call ptr @tcg_gen_op3(i32 noundef 29, i32 noundef 0, i64 noundef %29, i64 noundef %32, i64 noundef %35)
  br label %tcg_gen_shli_i32.exit

37:                                               ; preds = %4
  br i1 %10, label %38, label %40

38:                                               ; preds = %37
  %notmask52 = shl nsw i32 -1, %3
  %39 = xor i32 %notmask52, -1
  tail call void @tcg_gen_andi_i32(ptr noundef %0, ptr noundef %1, i32 noundef %39)
  br label %tcg_gen_shli_i32.exit

40:                                               ; preds = %37
  switch i32 %3, label %75 [
    i32 16, label %tcg_gen_shli_i32.exit55
    i32 8, label %tcg_gen_shli_i32.exit58
  ]

tcg_gen_shli_i32.exit55:                          ; preds = %40
  %41 = tail call align 8 ptr @llvm.threadlocal.address.p0(ptr align 8 @tcg_ctx)
  %42 = load ptr, ptr %41, align 8
  %43 = ptrtoint ptr %0 to i64
  %44 = getelementptr inbounds nuw i8, ptr %42, i64 %43
  %45 = ptrtoint ptr %44 to i64
  %46 = ptrtoint ptr %1 to i64
  %47 = getelementptr inbounds nuw i8, ptr %42, i64 %46
  %48 = ptrtoint ptr %47 to i64
  %49 = tail call ptr @tcg_gen_op2(i32 noundef 50, i32 noundef 0, i64 noundef %45, i64 noundef %48)
  %50 = tail call ptr @tcg_constant_i32(i32 noundef %2) #6
  %51 = load ptr, ptr %41, align 8
  %52 = getelementptr inbounds nuw i8, ptr %51, i64 %43
  %53 = ptrtoint ptr %52 to i64
  %54 = ptrtoint ptr %50 to i64
  %55 = getelementptr inbounds nuw i8, ptr %51, i64 %54
  %56 = ptrtoint ptr %55 to i64
  %57 = tail call ptr @tcg_gen_op3(i32 noundef 29, i32 noundef 0, i64 noundef %53, i64 noundef %53, i64 noundef %56)
  br label %tcg_gen_shli_i32.exit

tcg_gen_shli_i32.exit58:                          ; preds = %40
  %58 = tail call align 8 ptr @llvm.threadlocal.address.p0(ptr align 8 @tcg_ctx)
  %59 = load ptr, ptr %58, align 8
  %60 = ptrtoint ptr %0 to i64
  %61 = getelementptr inbounds nuw i8, ptr %59, i64 %60
  %62 = ptrtoint ptr %61 to i64
  %63 = ptrtoint ptr %1 to i64
  %64 = getelementptr inbounds nuw i8, ptr %59, i64 %63
  %65 = ptrtoint ptr %64 to i64
  %66 = tail call ptr @tcg_gen_op2(i32 noundef 49, i32 noundef 0, i64 noundef %62, i64 noundef %65)
  %67 = tail call ptr @tcg_constant_i32(i32 noundef %2) #6
  %68 = load ptr, ptr %58, align 8
  %69 = getelementptr inbounds nuw i8, ptr %68, i64 %60
  %70 = ptrtoint ptr %69 to i64
  %71 = ptrtoint ptr %67 to i64
  %72 = getelementptr inbounds nuw i8, ptr %68, i64 %71
  %73 = ptrtoint ptr %72 to i64
  %74 = tail call ptr @tcg_gen_op3(i32 noundef 29, i32 noundef 0, i64 noundef %70, i64 noundef %70, i64 noundef %73)
  br label %tcg_gen_shli_i32.exit

75:                                               ; preds = %40
  switch i32 %7, label %tcg_gen_shli_i32.exit67 [
    i32 16, label %tcg_gen_shli_i32.exit61
    i32 8, label %tcg_gen_shli_i32.exit64
  ]

tcg_gen_shli_i32.exit61:                          ; preds = %75
  %76 = tail call ptr @tcg_constant_i32(i32 noundef %2) #6
  %77 = tail call align 8 ptr @llvm.threadlocal.address.p0(ptr align 8 @tcg_ctx)
  %78 = load ptr, ptr %77, align 8
  %79 = ptrtoint ptr %0 to i64
  %80 = getelementptr inbounds nuw i8, ptr %78, i64 %79
  %81 = ptrtoint ptr %80 to i64
  %82 = ptrtoint ptr %1 to i64
  %83 = getelementptr inbounds nuw i8, ptr %78, i64 %82
  %84 = ptrtoint ptr %83 to i64
  %85 = ptrtoint ptr %76 to i64
  %86 = getelementptr inbounds nuw i8, ptr %78, i64 %85
  %87 = ptrtoint ptr %86 to i64
  %88 = tail call ptr @tcg_gen_op3(i32 noundef 29, i32 noundef 0, i64 noundef %81, i64 noundef %84, i64 noundef %87)
  %89 = load ptr, ptr %77, align 8
  %90 = getelementptr inbounds nuw i8, ptr %89, i64 %79
  %91 = ptrtoint ptr %90 to i64
  %92 = tail call ptr @tcg_gen_op2(i32 noundef 50, i32 noundef 0, i64 noundef %91, i64 noundef %91)
  br label %tcg_gen_shli_i32.exit

tcg_gen_shli_i32.exit64:                          ; preds = %75
  %93 = tail call ptr @tcg_constant_i32(i32 noundef %2) #6
  %94 = tail call align 8 ptr @llvm.threadlocal.address.p0(ptr align 8 @tcg_ctx)
  %95 = load ptr, ptr %94, align 8
  %96 = ptrtoint ptr %0 to i64
  %97 = getelementptr inbounds nuw i8, ptr %95, i64 %96
  %98 = ptrtoint ptr %97 to i64
  %99 = ptrtoint ptr %1 to i64
  %100 = getelementptr inbounds nuw i8, ptr %95, i64 %99
  %101 = ptrtoint ptr %100 to i64
  %102 = ptrtoint ptr %93 to i64
  %103 = getelementptr inbounds nuw i8, ptr %95, i64 %102
  %104 = ptrtoint ptr %103 to i64
  %105 = tail call ptr @tcg_gen_op3(i32 noundef 29, i32 noundef 0, i64 noundef %98, i64 noundef %101, i64 noundef %104)
  %106 = load ptr, ptr %94, align 8
  %107 = getelementptr inbounds nuw i8, ptr %106, i64 %96
  %108 = ptrtoint ptr %107 to i64
  %109 = tail call ptr @tcg_gen_op2(i32 noundef 49, i32 noundef 0, i64 noundef %108, i64 noundef %108)
  br label %tcg_gen_shli_i32.exit

tcg_gen_shli_i32.exit67:                          ; preds = %75
  %notmask = shl nsw i32 -1, %3
  %110 = xor i32 %notmask, -1
  tail call void @tcg_gen_andi_i32(ptr noundef %0, ptr noundef %1, i32 noundef %110)
  %111 = tail call ptr @tcg_constant_i32(i32 noundef %2) #6
  %112 = tail call align 8 ptr @llvm.threadlocal.address.p0(ptr align 8 @tcg_ctx)
  %113 = load ptr, ptr %112, align 8
  %114 = ptrtoint ptr %0 to i64
  %115 = getelementptr inbounds nuw i8, ptr %113, i64 %114
  %116 = ptrtoint ptr %115 to i64
  %117 = ptrtoint ptr %111 to i64
  %118 = getelementptr inbounds nuw i8, ptr %113, i64 %117
  %119 = ptrtoint ptr %118 to i64
  %120 = tail call ptr @tcg_gen_op3(i32 noundef 29, i32 noundef 0, i64 noundef %116, i64 noundef %116, i64 noundef %119)
  br label %tcg_gen_shli_i32.exit

tcg_gen_shli_i32.exit:                            ; preds = %23, %13, %12, %38, %tcg_gen_shli_i32.exit67, %tcg_gen_shli_i32.exit64, %tcg_gen_shli_i32.exit61, %tcg_gen_shli_i32.exit58, %tcg_gen_shli_i32.exit55
  ret void
}